target datalayout = "e-m:e-p270:32:32-p271:32:32-p272:64:64-i64:64-i128:128-f80:128-n8:16:32:64-S128"
target triple = "x86_64-pc-linux-gnu"

@ff_h264_luma_dc_dequant_idct_8_c.x_offset = internal constant [4 x i8] c"\00 \80\A0", align 1

; Function Attrs: nounwind uwtable
define void @ff_h264_luma_dc_dequant_idct_8_c(ptr noundef %0, ptr noundef %1, i32 noundef %2) #0 {
  %4 = alloca ptr, align 8
  %5 = alloca ptr, align 8
  %6 = alloca i32, align 4
  %7 = alloca i32, align 4
  %8 = alloca [16 x i32], align 16
  %9 = alloca ptr, align 8
  %10 = alloca ptr, align 8
  %11 = alloca i32, align 4
  %12 = alloca i32, align 4
  %13 = alloca i32, align 4
  %14 = alloca i32, align 4
  %15 = alloca i32, align 4
  %16 = alloca i32, align 4
  %17 = alloca i32, align 4
  %18 = alloca i32, align 4
  %19 = alloca i32, align 4
  store ptr %0, ptr %4, align 8, !tbaa !9
  store ptr %1, ptr %5, align 8, !tbaa !9
  store i32 %2, ptr %6, align 4, !tbaa !11
  call void @llvm.lifetime.start.p0(i64 4, ptr %7) #4
  call void @llvm.lifetime.start.p0(i64 64, ptr %8) #4
  call void @llvm.lifetime.start.p0(i64 8, ptr %9) #4
  %20 = load ptr, ptr %5, align 8, !tbaa !9
  store ptr %20, ptr %9, align 8, !tbaa !9
  call void @llvm.lifetime.start.p0(i64 8, ptr %10) #4
  %21 = load ptr, ptr %4, align 8, !tbaa !9
  store ptr %21, ptr %10, align 8, !tbaa !9
  store i32 0, ptr %7, align 4, !tbaa !11
  br label %22

22:                                               ; preds = %126, %3
  %23 = load i32, ptr %7, align 4, !tbaa !11
  %24 = icmp slt i32 %23, 4
  br i1 %24, label %25, label %129

25:                                               ; preds = %22
  call void @llvm.lifetime.start.p0(i64 4, ptr %11) #4
  %26 = load ptr, ptr %9, align 8, !tbaa !9
  %27 = load i32, ptr %7, align 4, !tbaa !11
  %28 = mul nsw i32 4, %27
  %29 = add nsw i32 %28, 0
  %30 = sext i32 %29 to i64
  %31 = getelementptr inbounds i16, ptr %26, i64 %30
  %32 = load i16, ptr %31, align 2, !tbaa !13
  %33 = sext i16 %32 to i32
  %34 = load ptr, ptr %9, align 8, !tbaa !9
  %35 = load i32, ptr %7, align 4, !tbaa !11
  %36 = mul nsw i32 4, %35
  %37 = add nsw i32 %36, 1
  %38 = sext i32 %37 to i64
  %39 = getelementptr inbounds i16, ptr %34, i64 %38
  %40 = load i16, ptr %39, align 2, !tbaa !13
  %41 = sext i16 %40 to i32
  %42 = add nsw i32 %33, %41
  store i32 %42, ptr %11, align 4, !tbaa !11
  call void @llvm.lifetime.start.p0(i64 4, ptr %12) #4
  %43 = load ptr, ptr %9, align 8, !tbaa !9
  %44 = load i32, ptr %7, align 4, !tbaa !11
  %45 = mul nsw i32 4, %44
  %46 = add nsw i32 %45, 0
  %47 = sext i32 %46 to i64
  %48 = getelementptr inbounds i16, ptr %43, i64 %47
  %49 = load i16, ptr %48, align 2, !tbaa !13
  %50 = sext i16 %49 to i32
  %51 = load ptr, ptr %9, align 8, !tbaa !9
  %52 = load i32, ptr %7, align 4, !tbaa !11
  %53 = mul nsw i32 4, %52
  %54 = add nsw i32 %53, 1
  %55 = sext i32 %54 to i64
  %56 = getelementptr inbounds i16, ptr %51, i64 %55
  %57 = load i16, ptr %56, align 2, !tbaa !13
  %58 = sext i16 %57 to i32
  %59 = sub nsw i32 %50, %58
  store i32 %59, ptr %12, align 4, !tbaa !11
  call void @llvm.lifetime.start.p0(i64 4, ptr %13) #4
  %60 = load ptr, ptr %9, align 8, !tbaa !9
  %61 = load i32, ptr %7, align 4, !tbaa !11
  %62 = mul nsw i32 4, %61
  %63 = add nsw i32 %62, 2
  %64 = sext i32 %63 to i64
  %65 = getelementptr inbounds i16, ptr %60, i64 %64
  %66 = load i16, ptr %65, align 2, !tbaa !13
  %67 = sext i16 %66 to i32
  %68 = load ptr, ptr %9, align 8, !tbaa !9
  %69 = load i32, ptr %7, align 4, !tbaa !11
  %70 = mul nsw i32 4, %69
  %71 = add nsw i32 %70, 3
  %72 = sext i32 %71 to i64
  %73 = getelementptr inbounds i16, ptr %68, i64 %72
  %74 = load i16, ptr %73, align 2, !tbaa !13
  %75 = sext i16 %74 to i32
  %76 = sub nsw i32 %67, %75
  store i32 %76, ptr %13, align 4, !tbaa !11
  call void @llvm.lifetime.start.p0(i64 4, ptr %14) #4
  %77 = load ptr, ptr %9, align 8, !tbaa !9
  %78 = load i32, ptr %7, align 4, !tbaa !11
  %79 = mul nsw i32 4, %78
  %80 = add nsw i32 %79, 2
  %81 = sext i32 %80 to i64
  %82 = getelementptr inbounds i16, ptr %77, i64 %81
  %83 = load i16, ptr %82, align 2, !tbaa !13
  %84 = sext i16 %83 to i32
  %85 = load ptr, ptr %9, align 8, !tbaa !9
  %86 = load i32, ptr %7, align 4, !tbaa !11
  %87 = mul nsw i32 4, %86
  %88 = add nsw i32 %87, 3
  %89 = sext i32 %88 to i64
  %90 = getelementptr inbounds i16, ptr %85, i64 %89
  %91 = load i16, ptr %90, align 2, !tbaa !13
  %92 = sext i16 %91 to i32
  %93 = add nsw i32 %84, %92
  store i32 %93, ptr %14, align 4, !tbaa !11
  %94 = load i32, ptr %11, align 4, !tbaa !11
  %95 = load i32, ptr %14, align 4, !tbaa !11
  %96 = add nsw i32 %94, %95
  %97 = load i32, ptr %7, align 4, !tbaa !11
  %98 = mul nsw i32 4, %97
  %99 = add nsw i32 %98, 0
  %100 = sext i32 %99 to i64
  %101 = getelementptr inbounds [16 x i32], ptr %8, i64 0, i64 %100
  store i32 %96, ptr %101, align 4, !tbaa !11
  %102 = load i32, ptr %11, align 4, !tbaa !11
  %103 = load i32, ptr %14, align 4, !tbaa !11
  %104 = sub nsw i32 %102, %103
  %105 = load i32, ptr %7, align 4, !tbaa !11
  %106 = mul nsw i32 4, %105
  %107 = add nsw i32 %106, 1
  %108 = sext i32 %107 to i64
  %109 = getelementptr inbounds [16 x i32], ptr %8, i64 0, i64 %108
  store i32 %104, ptr %109, align 4, !tbaa !11
  %110 = load i32, ptr %12, align 4, !tbaa !11
  %111 = load i32, ptr %13, align 4, !tbaa !11
  %112 = sub nsw i32 %110, %111
  %113 = load i32, ptr %7, align 4, !tbaa !11
  %114 = mul nsw i32 4, %113
  %115 = add nsw i32 %114, 2
  %116 = sext i32 %115 to i64
  %117 = getelementptr inbounds [16 x i32], ptr %8, i64 0, i64 %116
  store i32 %112, ptr %117, align 4, !tbaa !11
  %118 = load i32, ptr %12, align 4, !tbaa !11
  %119 = load i32, ptr %13, align 4, !tbaa !11
  %120 = add nsw i32 %118, %119
  %121 = load i32, ptr %7, align 4, !tbaa !11
  %122 = mul nsw i32 4, %121
  %123 = add nsw i32 %122, 3
  %124 = sext i32 %123 to i64
  %125 = getelementptr inbounds [16 x i32], ptr %8, i64 0, i64 %124
  store i32 %120, ptr %125, align 4, !tbaa !11
  call void @llvm.lifetime.end.p0(i64 4, ptr %14) #4
  call void @llvm.lifetime.end.p0(i64 4, ptr %13) #4
  call void @llvm.lifetime.end.p0(i64 4, ptr %12) #4
  call void @llvm.lifetime.end.p0(i64 4, ptr %11) #4
  br label %126

126:                                              ; preds = %25
  %127 = load i32, ptr %7, align 4, !tbaa !11
  %128 = add nsw i32 %127, 1
  store i32 %128, ptr %7, align 4, !tbaa !11
  br label %22, !llvm.loop !39

129:                                              ; preds = %22
  store i32 0, ptr %7, align 4, !tbaa !11
  br label %130

130:                                              ; preds = %235, %129
  %131 = load i32, ptr %7, align 4, !tbaa !11
  %132 = icmp slt i32 %131, 4
  br i1 %132, label %133, label %238

133:                                              ; preds = %130
  call void @llvm.lifetime.start.p0(i64 4, ptr %15) #4
  %134 = load i32, ptr %7, align 4, !tbaa !11
  %135 = sext i32 %134 to i64
  %136 = getelementptr inbounds [4 x i8], ptr @ff_h264_luma_dc_dequant_idct_8_c.x_offset, i64 0, i64 %135
  %137 = load i8, ptr %136, align 1, !tbaa !17
  %138 = zext i8 %137 to i32
  store i32 %138, ptr %15, align 4, !tbaa !11
  call void @llvm.lifetime.start.p0(i64 4, ptr %16) #4
  %139 = load i32, ptr %7, align 4, !tbaa !11
  %140 = add nsw i32 0, %139
  %141 = sext i32 %140 to i64
  %142 = getelementptr inbounds [16 x i32], ptr %8, i64 0, i64 %141
  %143 = load i32, ptr %142, align 4, !tbaa !11
  %144 = load i32, ptr %7, align 4, !tbaa !11
  %145 = add nsw i32 8, %144
  %146 = sext i32 %145 to i64
  %147 = getelementptr inbounds [16 x i32], ptr %8, i64 0, i64 %146
  %148 = load i32, ptr %147, align 4, !tbaa !11
  %149 = add nsw i32 %143, %148
  store i32 %149, ptr %16, align 4, !tbaa !11
  call void @llvm.lifetime.start.p0(i64 4, ptr %17) #4
  %150 = load i32, ptr %7, align 4, !tbaa !11
  %151 = add nsw i32 0, %150
  %152 = sext i32 %151 to i64
  %153 = getelementptr inbounds [16 x i32], ptr %8, i64 0, i64 %152
  %154 = load i32, ptr %153, align 4, !tbaa !11
  %155 = load i32, ptr %7, align 4, !tbaa !11
  %156 = add nsw i32 8, %155
  %157 = sext i32 %156 to i64
  %158 = getelementptr inbounds [16 x i32], ptr %8, i64 0, i64 %157
  %159 = load i32, ptr %158, align 4, !tbaa !11
  %160 = sub nsw i32 %154, %159
  store i32 %160, ptr %17, align 4, !tbaa !11
  call void @llvm.lifetime.start.p0(i64 4, ptr %18) #4
  %161 = load i32, ptr %7, align 4, !tbaa !11
  %162 = add nsw i32 4, %161
  %163 = sext i32 %162 to i64
  %164 = getelementptr inbounds [16 x i32], ptr %8, i64 0, i64 %163
  %165 = load i32, ptr %164, align 4, !tbaa !11
  %166 = load i32, ptr %7, align 4, !tbaa !11
  %167 = add nsw i32 12, %166
  %168 = sext i32 %167 to i64
  %169 = getelementptr inbounds [16 x i32], ptr %8, i64 0, i64 %168
  %170 = load i32, ptr %169, align 4, !tbaa !11
  %171 = sub nsw i32 %165, %170
  store i32 %171, ptr %18, align 4, !tbaa !11
  call void @llvm.lifetime.start.p0(i64 4, ptr %19) #4
  %172 = load i32, ptr %7, align 4, !tbaa !11
  %173 = add nsw i32 4, %172
  %174 = sext i32 %173 to i64
  %175 = getelementptr inbounds [16 x i32], ptr %8, i64 0, i64 %174
  %176 = load i32, ptr %175, align 4, !tbaa !11
  %177 = load i32, ptr %7, align 4, !tbaa !11
  %178 = add nsw i32 12, %177
  %179 = sext i32 %178 to i64
  %180 = getelementptr inbounds [16 x i32], ptr %8, i64 0, i64 %179
  %181 = load i32, ptr %180, align 4, !tbaa !11
  %182 = add nsw i32 %176, %181
  store i32 %182, ptr %19, align 4, !tbaa !11
  %183 = load i32, ptr %16, align 4, !tbaa !11
  %184 = load i32, ptr %19, align 4, !tbaa !11
  %185 = add i32 %183, %184
  %186 = load i32, ptr %6, align 4, !tbaa !11
  %187 = mul i32 %185, %186
  %188 = add i32 %187, 128
  %189 = ashr i32 %188, 8
  %190 = trunc i32 %189 to i16
  %191 = load ptr, ptr %10, align 8, !tbaa !9
  %192 = load i32, ptr %15, align 4, !tbaa !11
  %193 = add nsw i32 0, %192
  %194 = sext i32 %193 to i64
  %195 = getelementptr inbounds i16, ptr %191, i64 %194
  store i16 %190, ptr %195, align 2, !tbaa !13
  %196 = load i32, ptr %17, align 4, !tbaa !11
  %197 = load i32, ptr %18, align 4, !tbaa !11
  %198 = add i32 %196, %197
  %199 = load i32, ptr %6, align 4, !tbaa !11
  %200 = mul i32 %198, %199
  %201 = add i32 %200, 128
  %202 = ashr i32 %201, 8
  %203 = trunc i32 %202 to i16
  %204 = load ptr, ptr %10, align 8, !tbaa !9
  %205 = load i32, ptr %15, align 4, !tbaa !11
  %206 = add nsw i32 16, %205
  %207 = sext i32 %206 to i64
  %208 = getelementptr inbounds i16, ptr %204, i64 %207
  store i16 %203, ptr %208, align 2, !tbaa !13
  %209 = load i32, ptr %17, align 4, !tbaa !11
  %210 = load i32, ptr %18, align 4, !tbaa !11
  %211 = sub i32 %209, %210
  %212 = load i32, ptr %6, align 4, !tbaa !11
  %213 = mul i32 %211, %212
  %214 = add i32 %213, 128
  %215 = ashr i32 %214, 8
  %216 = trunc i32 %215 to i16
  %217 = load ptr, ptr %10, align 8, !tbaa !9
  %218 = load i32, ptr %15, align 4, !tbaa !11
  %219 = add nsw i32 64, %218
  %220 = sext i32 %219 to i64
  %221 = getelementptr inbounds i16, ptr %217, i64 %220
  store i16 %216, ptr %221, align 2, !tbaa !13
  %222 = load i32, ptr %16, align 4, !tbaa !11
  %223 = load i32, ptr %19, align 4, !tbaa !11
  %224 = sub i32 %222, %223
  %225 = load i32, ptr %6, align 4, !tbaa !11
  %226 = mul i32 %224, %225
  %227 = add i32 %226, 128
  %228 = ashr i32 %227, 8
  %229 = trunc i32 %228 to i16
  %230 = load ptr, ptr %10, align 8, !tbaa !9
  %231 = load i32, ptr %15, align 4, !tbaa !11
  %232 = add nsw i32 80, %231
  %233 = sext i32 %232 to i64
  %234 = getelementptr inbounds i16, ptr %230, i64 %233
  store i16 %229, ptr %234, align 2, !tbaa !13
  call void @llvm.lifetime.end.p0(i64 4, ptr %19) #4
  call void @llvm.lifetime.end.p0(i64 4, ptr %18) #4
  call void @llvm.lifetime.end.p0(i64 4, ptr %17) #4
  call void @llvm.lifetime.end.p0(i64 4, ptr %16) #4
  call void @llvm.lifetime.end.p0(i64 4, ptr %15) #4
  br label %235

235:                                              ; preds = %133
  %236 = load i32, ptr %7, align 4, !tbaa !11
  %237 = add nsw i32 %236, 1
  store i32 %237, ptr %7, align 4, !tbaa !11
  br label %130, !llvm.loop !40

238:                                              ; preds = %130
  call void @llvm.lifetime.end.p0(i64 8, ptr %10) #4
  call void @llvm.lifetime.end.p0(i64 8, ptr %9) #4
  call void @llvm.lifetime.end.p0(i64 64, ptr %8) #4
  call void @llvm.lifetime.end.p0(i64 4, ptr %7) #4
  ret void
}