; Function Attrs: nofree norecurse nosync nounwind memory(argmem: readwrite) uwtable
define void @ff_h264_luma_dc_dequant_idct_8_c(ptr noundef writeonly captures(none) %0, ptr noundef readonly captures(none) %1, i32 noundef %2) local_unnamed_addr #0 {
  %4 = alloca [16 x i32], align 16
  call void @llvm.lifetime.start.p0(i64 64, ptr nonnull %4) #6
  br label %5

5:                                                ; preds = %3, %5
  %indvars.iv = phi i64 [ 0, %3 ], [ %indvars.iv.next, %5 ]
  %6 = shl nuw nsw i64 %indvars.iv, 2
  %7 = getelementptr inbounds nuw i16, ptr %1, i64 %6
  %8 = load i16, ptr %7, align 2, !tbaa !4
  %9 = sext i16 %8 to i32
  %10 = or disjoint i64 %6, 1
  %11 = getelementptr inbounds nuw i16, ptr %1, i64 %10
  %12 = load i16, ptr %11, align 2, !tbaa !4
  %13 = sext i16 %12 to i32
  %14 = add nsw i32 %13, %9
  %15 = sub nsw i32 %9, %13
  %16 = or disjoint i64 %6, 2
  %17 = getelementptr inbounds nuw i16, ptr %1, i64 %16
  %18 = load i16, ptr %17, align 2, !tbaa !4
  %19 = sext i16 %18 to i32
  %20 = or disjoint i64 %6, 3
  %21 = getelementptr inbounds nuw i16, ptr %1, i64 %20
  %22 = load i16, ptr %21, align 2, !tbaa !4
  %23 = sext i16 %22 to i32
  %24 = sub nsw i32 %19, %23
  %25 = add nsw i32 %23, %19
  %26 = add nsw i32 %25, %14
  %27 = getelementptr inbounds nuw [16 x i32], ptr %4, i64 0, i64 %6
  store i32 %26, ptr %27, align 16, !tbaa !18
  %28 = sub nsw i32 %14, %25
  %29 = getelementptr inbounds nuw [16 x i32], ptr %4, i64 0, i64 %10
  store i32 %28, ptr %29, align 4, !tbaa !18
  %30 = sub nsw i32 %15, %24
  %31 = getelementptr inbounds nuw [16 x i32], ptr %4, i64 0, i64 %16
  store i32 %30, ptr %31, align 8, !tbaa !18
  %32 = add nsw i32 %24, %15
  %33 = getelementptr inbounds nuw [16 x i32], ptr %4, i64 0, i64 %20
  store i32 %32, ptr %33, align 4, !tbaa !18
  %indvars.iv.next = add nuw nsw i64 %indvars.iv, 1
  %exitcond.not = icmp eq i64 %indvars.iv.next, 4
  br i1 %exitcond.not, label %.preheader, label %5, !llvm.loop !32

.preheader:                                       ; preds = %5, %.preheader
  %indvars.iv65 = phi i64 [ %indvars.iv.next66, %.preheader ], [ 0, %5 ]
  %34 = getelementptr inbounds nuw [4 x i8], ptr @ff_h264_luma_dc_dequant_idct_14_c.x_offset, i64 0, i64 %indvars.iv65
  %35 = load i8, ptr %34, align 1, !tbaa !10
  %36 = zext i8 %35 to i64
  %37 = getelementptr inbounds nuw [16 x i32], ptr %4, i64 0, i64 %indvars.iv65
  %38 = load i32, ptr %37, align 4, !tbaa !18
  %39 = or disjoint i64 %indvars.iv65, 8
  %40 = getelementptr inbounds nuw [16 x i32], ptr %4, i64 0, i64 %39
  %41 = load i32, ptr %40, align 4, !tbaa !18
  %42 = add nsw i32 %41, %38
  %43 = sub nsw i32 %38, %41
  %44 = or disjoint i64 %indvars.iv65, 4
  %45 = getelementptr inbounds nuw [16 x i32], ptr %4, i64 0, i64 %44
  %46 = load i32, ptr %45, align 4, !tbaa !18
  %47 = or disjoint i64 %indvars.iv65, 12
  %48 = getelementptr inbounds nuw [16 x i32], ptr %4, i64 0, i64 %47
  %49 = load i32, ptr %48, align 4, !tbaa !18
  %50 = sub nsw i32 %46, %49
  %51 = add nsw i32 %49, %46
  %52 = add i32 %51, %42
  %53 = mul i32 %52, %2
  %54 = add i32 %53, 128
  %55 = lshr i32 %54, 8
  %56 = trunc i32 %55 to i16
  %57 = getelementptr inbounds nuw i16, ptr %0, i64 %36
  store i16 %56, ptr %57, align 2, !tbaa !4
  %58 = add i32 %50, %43
  %59 = mul i32 %58, %2
  %60 = add i32 %59, 128
  %61 = lshr i32 %60, 8
  %62 = trunc i32 %61 to i16
  %63 = getelementptr inbounds nuw i8, ptr %57, i64 32
  store i16 %62, ptr %63, align 2, !tbaa !4
  %64 = sub i32 %43, %50
  %65 = mul i32 %64, %2
  %66 = add i32 %65, 128
  %67 = lshr i32 %66, 8
  %68 = trunc i32 %67 to i16
  %69 = getelementptr inbounds nuw i8, ptr %57, i64 128
  store i16 %68, ptr %69, align 2, !tbaa !4
  %70 = sub i32 %42, %51
  %71 = mul i32 %70, %2
  %72 = add i32 %71, 128
  %73 = lshr i32 %72, 8
  %74 = trunc i32 %73 to i16
  %75 = getelementptr inbounds nuw i8, ptr %57, i64 160
  store i16 %74, ptr %75, align 2, !tbaa !4
  %indvars.iv.next66 = add nuw nsw i64 %indvars.iv65, 1
  %exitcond68.not = icmp eq i64 %indvars.iv.next66, 4
  br i1 %exitcond68.not, label %76, label %.preheader, !llvm.loop !33

76:                                               ; preds = %.preheader
  call void @llvm.lifetime.end.p0(i64 64, ptr nonnull %4) #6
  ret void
}